target datalayout = "e-m:e-p270:32:32-p271:32:32-p272:64:64-i64:64-i128:128-f80:128-n8:16:32:64-S128"
target triple = "x86_64-pc-linux-gnu"

%"struct.icu_77::FormattedStringBuilder::Field" = type { i8 }
%"class.icu_77::MaybeStackArray" = type <{ ptr, i32, i8, [40 x i8], [3 x i8] }>
%"struct.icu_77::number::impl::UFormattedNumberImpl" = type { %"struct.icu_77::UFormattedValueImpl", %"class.icu_77::IcuCApiHelper.0", [4 x i8], %"class.icu_77::number::FormattedNumber", %"class.icu_77::number::impl::UFormattedNumberData" }
%"struct.icu_77::UFormattedValueImpl" = type { %"class.icu_77::IcuCApiHelper", ptr }
%"class.icu_77::IcuCApiHelper" = type { i32 }
%"class.icu_77::IcuCApiHelper.0" = type { i32 }
%"class.icu_77::number::FormattedNumber" = type <{ %"class.icu_77::FormattedValue", ptr, i32, [4 x i8] }>
%"class.icu_77::FormattedValue" = type { ptr }
%"class.icu_77::number::impl::UFormattedNumberData" = type { %"class.icu_77::FormattedValueStringBuilderImpl.base", [4 x i8], %"class.icu_77::number::impl::DecimalQuantity", %"class.icu_77::MeasureUnit", ptr }
%"class.icu_77::FormattedValueStringBuilderImpl.base" = type <{ %"class.icu_77::FormattedValue", %"class.icu_77::FormattedStringBuilder", %"struct.icu_77::FormattedStringBuilder::Field", [7 x i8], %"class.icu_77::MaybeStackArray.3", i32 }>
%"class.icu_77::FormattedStringBuilder" = type { i8, %"union.icu_77::FormattedStringBuilder::ValueOrHeapArray", %"union.icu_77::FormattedStringBuilder::ValueOrHeapArray.1", i32, i32 }
%"union.icu_77::FormattedStringBuilder::ValueOrHeapArray" = type { %struct.anon, [64 x i8] }
%struct.anon = type { ptr, i32 }
%"union.icu_77::FormattedStringBuilder::ValueOrHeapArray.1" = type { %struct.anon.2, [24 x i8] }
%struct.anon.2 = type { ptr, i32 }
%"class.icu_77::MaybeStackArray.3" = type { ptr, i32, i8, [8 x %"struct.icu_77::SpanInfo"] }
%"struct.icu_77::SpanInfo" = type { i32, i32, i32, i32 }
%"class.icu_77::number::impl::DecimalQuantity" = type <{ %"class.icu_77::IFixedDecimal", i8, [3 x i8], i32, i32, i8, i8, [2 x i8], double, i32, i32, i32, i32, %union.anon, i8, i8, [6 x i8] }>
%"class.icu_77::IFixedDecimal" = type { ptr }
%union.anon = type { %struct.anon.4 }
%struct.anon.4 = type { ptr, i32 }
%"class.icu_77::MeasureUnit" = type <{ %"class.icu_77::UObject", ptr, i16, i8, [5 x i8] }>
%"class.icu_77::UObject" = type { ptr }
%"class.icu_77::number::impl::DecNum" = type { %"class.icu_77::MaybeStackHeaderAndArray", %struct.decContext, [4 x i8] }
%"class.icu_77::MaybeStackHeaderAndArray" = type <{ ptr, i32, i8, [3 x i8], %struct.decNumber, [34 x i8], [2 x i8] }>
%struct.decNumber = type { i32, i32, i8, [1 x i8] }
%struct.decContext = type { i32, i32, i32, i32, i32, i32, i8 }
%"class.icu_77::CharString" = type { %"class.icu_77::MaybeStackArray", i32, [4 x i8] }
%"class.icu_77::CharStringByteSink" = type { %"class.icu_77::ByteSink", ptr }
%"class.icu_77::ByteSink" = type { ptr }

@_ZN6icu_7715MaybeStackArrayIcLi40EEC1Ev = weak_odr unnamed_addr alias void (ptr), ptr @_ZN6icu_7715MaybeStackArrayIcLi40EEC2Ev
@_ZN6icu_7715MaybeStackArrayIcLi40EED1Ev = weak_odr unnamed_addr alias void (ptr), ptr @_ZN6icu_7715MaybeStackArrayIcLi40EED2Ev

; Function Attrs: mustprogress nounwind uwtable
define weak_odr noundef nonnull align 1 dereferenceable(1) ptr @_ZN6icu_7715MaybeStackArrayIcLi40EEixEl(ptr noundef nonnull align 8 dereferenceable(53) %0, i64 noundef %1) #0 comdat align 2 {
  %3 = alloca ptr, align 8
  %4 = alloca i64, align 8
  store ptr %0, ptr %3, align 8, !tbaa !3
  store i64 %1, ptr %4, align 8, !tbaa !18
  %5 = load ptr, ptr %3, align 8
  %6 = getelementptr inbounds nuw %"class.icu_77::MaybeStackArray", ptr %5, i32 0, i32 0
  %7 = load ptr, ptr %6, align 8, !tbaa !8
  %8 = load i64, ptr %4, align 8, !tbaa !18
  %9 = getelementptr inbounds i8, ptr %7, i64 %8
  ret ptr %9
}

; Function Attrs: mustprogress uwtable
define linkonce_odr void @_ZN6icu_7710CharStringC2Ev(ptr noundef nonnull align 8 dereferenceable(60) %0) unnamed_addr #1 comdat align 2 {
  %2 = alloca ptr, align 8
  store ptr %0, ptr %2, align 8, !tbaa !120
  %3 = load ptr, ptr %2, align 8
  %4 = getelementptr inbounds nuw %"class.icu_77::CharString", ptr %3, i32 0, i32 0
  call void @_ZN6icu_7715MaybeStackArrayIcLi40EEC1Ev(ptr noundef nonnull align 8 dereferenceable(53) %4)
  %5 = getelementptr inbounds nuw %"class.icu_77::CharString", ptr %3, i32 0, i32 1
  store i32 0, ptr %5, align 8, !tbaa !236
  %6 = getelementptr inbounds nuw %"class.icu_77::CharString", ptr %3, i32 0, i32 0
  %7 = call noundef nonnull align 1 dereferenceable(1) ptr @_ZN6icu_7715MaybeStackArrayIcLi40EEixEl(ptr noundef nonnull align 8 dereferenceable(53) %6, i64 noundef 0)
  store i8 0, ptr %7, align 1, !tbaa !46
  ret void
}

; Function Attrs: mustprogress nounwind uwtable
define linkonce_odr void @_ZN6icu_7710CharStringD2Ev(ptr noundef nonnull align 8 dereferenceable(60) %0) unnamed_addr #0 comdat align 2 {
  %2 = alloca ptr, align 8
  store ptr %0, ptr %2, align 8, !tbaa !120
  %3 = load ptr, ptr %2, align 8
  %4 = getelementptr inbounds nuw %"class.icu_77::CharString", ptr %3, i32 0, i32 0
  call void @_ZN6icu_7715MaybeStackArrayIcLi40EED1Ev(ptr noundef nonnull align 8 dereferenceable(53) %4) #11
  ret void
}

; Function Attrs: inlinehint mustprogress uwtable
define linkonce_odr void @_ZNK6icu_776number4impl6DecNum12toCharStringER10UErrorCode(ptr dead_on_unwind noalias writable sret(%"class.icu_77::CharString") align 8 %0, ptr noundef nonnull align 8 dereferenceable(92) %1, ptr noundef nonnull align 4 dereferenceable(4) %2) #3 comdat align 2 personality ptr @__gxx_personality_v0 {
  %4 = alloca ptr, align 8
  %5 = alloca ptr, align 8
  %6 = alloca ptr, align 8
  %7 = alloca i1, align 1
  %8 = alloca %"class.icu_77::CharStringByteSink", align 8
  %9 = alloca ptr, align 8
  %10 = alloca i32, align 4
  store ptr %0, ptr %4, align 8
  store ptr %1, ptr %5, align 8, !tbaa !118
  store ptr %2, ptr %6, align 8, !tbaa !22
  %11 = load ptr, ptr %5, align 8
  store i1 false, ptr %7, align 1
  call void @_ZN6icu_7710CharStringC2Ev(ptr noundef nonnull align 8 dereferenceable(60) %0)
  call void @llvm.lifetime.start.p0(i64 16, ptr %8) #11
  invoke void @_ZN6icu_7718CharStringByteSinkC1EPNS_10CharStringE(ptr noundef nonnull align 8 dereferenceable(16) %8, ptr noundef %0)
          to label %12 unwind label %16

12:                                               ; preds = %3
  %13 = load ptr, ptr %6, align 8, !tbaa !22
  invoke void @_ZNK6icu_776number4impl6DecNum8toStringERNS_8ByteSinkER10UErrorCode(ptr noundef nonnull align 8 dereferenceable(92) %11, ptr noundef nonnull align 8 dereferenceable(8) %8, ptr noundef nonnull align 4 dereferenceable(4) %13)
          to label %14 unwind label %20

14:                                               ; preds = %12
  store i1 true, ptr %7, align 1
  call void @_ZN6icu_7718CharStringByteSinkD1Ev(ptr noundef nonnull align 8 dereferenceable(16) %8) #11
  call void @llvm.lifetime.end.p0(i64 16, ptr %8) #11
  %15 = load i1, ptr %7, align 1
  br i1 %15, label %26, label %25

16:                                               ; preds = %3
  %17 = landingpad { ptr, i32 }
          cleanup
  %18 = extractvalue { ptr, i32 } %17, 0
  store ptr %18, ptr %9, align 8
  %19 = extractvalue { ptr, i32 } %17, 1
  store i32 %19, ptr %10, align 4
  br label %24

20:                                               ; preds = %12
  %21 = landingpad { ptr, i32 }
          cleanup
  %22 = extractvalue { ptr, i32 } %21, 0
  store ptr %22, ptr %9, align 8
  %23 = extractvalue { ptr, i32 } %21, 1
  store i32 %23, ptr %10, align 4
  call void @_ZN6icu_7718CharStringByteSinkD1Ev(ptr noundef nonnull align 8 dereferenceable(16) %8) #11
  br label %24

24:                                               ; preds = %20, %16
  call void @llvm.lifetime.end.p0(i64 16, ptr %8) #11
  call void @_ZN6icu_7710CharStringD2Ev(ptr noundef nonnull align 8 dereferenceable(60) %0) #11
  br label %27

25:                                               ; preds = %14
  call void @_ZN6icu_7710CharStringD2Ev(ptr noundef nonnull align 8 dereferenceable(60) %0) #11
  br label %26

26:                                               ; preds = %25, %14
  ret void

27:                                               ; preds = %24
  %28 = load ptr, ptr %9, align 8
  %29 = load i32, ptr %10, align 4
  %30 = insertvalue { ptr, i32 } poison, ptr %28, 0
  %31 = insertvalue { ptr, i32 } %30, i32 %29, 1
  resume { ptr, i32 } %31
}

; Function Attrs: inlinehint mustprogress nounwind uwtable
define internal noundef signext i8 @_ZL9U_FAILURE10UErrorCode(i32 noundef %0) #2 {
  %2 = alloca i32, align 4
  store i32 %0, ptr %2, align 4, !tbaa !15
  %3 = load i32, ptr %2, align 4, !tbaa !15
  %4 = icmp sgt i32 %3, 0
  %5 = zext i1 %4 to i8
  ret i8 %5
}

; Function Attrs: mustprogress nounwind uwtable
define linkonce_odr noundef ptr @_ZN6icu_7713IcuCApiHelperI16UFormattedNumberNS_6number4impl20UFormattedNumberImplELi1178881536EE8validateEPKS1_R10UErrorCode(ptr noundef %0, ptr noundef nonnull align 4 dereferenceable(4) %1) #0 comdat align 2 {
  %3 = alloca ptr, align 8
  %4 = alloca ptr, align 8
  %5 = alloca ptr, align 8
  %6 = alloca ptr, align 8
  %7 = alloca i32, align 4
  store ptr %0, ptr %4, align 8, !tbaa !67
  store ptr %1, ptr %5, align 8, !tbaa !22
  %8 = load ptr, ptr %5, align 8, !tbaa !22
  %9 = load i32, ptr %8, align 4, !tbaa !15
  %10 = call noundef signext i8 @_ZL9U_FAILURE10UErrorCode(i32 noundef %9)
  %11 = icmp ne i8 %10, 0
  br i1 %11, label %12, label %13

12:                                               ; preds = %2
  store ptr null, ptr %3, align 8
  br label %34

13:                                               ; preds = %2
  %14 = load ptr, ptr %4, align 8, !tbaa !67
  %15 = icmp eq ptr %14, null
  br i1 %15, label %16, label %18

16:                                               ; preds = %13
  %17 = load ptr, ptr %5, align 8, !tbaa !22
  store i32 1, ptr %17, align 4, !tbaa !15
  store ptr null, ptr %3, align 8
  br label %34

18:                                               ; preds = %13
  call void @llvm.lifetime.start.p0(i64 8, ptr %6) #11
  %19 = load ptr, ptr %4, align 8, !tbaa !67
  store ptr %19, ptr %6, align 8, !tbaa !23
  %20 = load ptr, ptr %6, align 8, !tbaa !23
  %21 = icmp eq ptr %20, null
  br i1 %21, label %24, label %22

22:                                               ; preds = %18
  %23 = getelementptr inbounds i8, ptr %20, i64 16
  br label %24

24:                                               ; preds = %22, %18
  %25 = phi ptr [ %23, %22 ], [ null, %18 ]
  %26 = getelementptr inbounds nuw %"class.icu_77::IcuCApiHelper.0", ptr %25, i32 0, i32 0
  %27 = load i32, ptr %26, align 4, !tbaa !33
  %28 = icmp ne i32 %27, 1178881536
  br i1 %28, label %29, label %31

29:                                               ; preds = %24
  %30 = load ptr, ptr %5, align 8, !tbaa !22
  store i32 3, ptr %30, align 4, !tbaa !15
  store ptr null, ptr %3, align 8
  store i32 1, ptr %7, align 4
  br label %33

31:                                               ; preds = %24
  %32 = load ptr, ptr %6, align 8, !tbaa !23
  store ptr %32, ptr %3, align 8
  store i32 1, ptr %7, align 4
  br label %33

33:                                               ; preds = %31, %29
  call void @llvm.lifetime.end.p0(i64 8, ptr %6) #11
  br label %34

34:                                               ; preds = %33, %16, %12
  %35 = load ptr, ptr %3, align 8
  ret ptr %35
}

; Function Attrs: mustprogress uwtable
define i32 @unumf_resultToDecimalNumber_77(ptr noundef %0, ptr noundef %1, i32 noundef %2, ptr noundef %3) #1 personality ptr @__gxx_personality_v0 {
  %5 = alloca i32, align 4
  %6 = alloca ptr, align 8
  %7 = alloca ptr, align 8
  %8 = alloca i32, align 4
  %9 = alloca ptr, align 8
  %10 = alloca ptr, align 8
  %11 = alloca i32, align 4
  %12 = alloca %"class.icu_77::number::impl::DecNum", align 8
  %13 = alloca %"class.icu_77::CharString", align 8
  %14 = alloca ptr, align 8
  %15 = alloca i32, align 4
  store ptr %0, ptr %6, align 8, !tbaa !67
  store ptr %1, ptr %7, align 8, !tbaa !17
  store i32 %2, ptr %8, align 4, !tbaa !14
  store ptr %3, ptr %9, align 8, !tbaa !22
  call void @llvm.lifetime.start.p0(i64 8, ptr %10) #11
  %16 = load ptr, ptr %6, align 8, !tbaa !67
  %17 = load ptr, ptr %9, align 8, !tbaa !22
  %18 = call noundef ptr @_ZN6icu_7713IcuCApiHelperI16UFormattedNumberNS_6number4impl20UFormattedNumberImplELi1178881536EE8validateEPKS1_R10UErrorCode(ptr noundef %16, ptr noundef nonnull align 4 dereferenceable(4) %17)
  store ptr %18, ptr %10, align 8, !tbaa !23
  %19 = load ptr, ptr %9, align 8, !tbaa !22
  %20 = load i32, ptr %19, align 4, !tbaa !15
  %21 = call noundef signext i8 @_ZL9U_FAILURE10UErrorCode(i32 noundef %20)
  %22 = icmp ne i8 %21, 0
  br i1 %22, label %23, label %24

23:                                               ; preds = %4
  store i32 0, ptr %5, align 4
  store i32 1, ptr %11, align 4
  br label %47

24:                                               ; preds = %4
  call void @llvm.lifetime.start.p0(i64 96, ptr %12) #11
  call void @_ZN6icu_776number4impl6DecNumC1Ev(ptr noundef nonnull align 8 dereferenceable(92) %12)
  call void @llvm.lifetime.start.p0(i64 64, ptr %13) #11
  %25 = load ptr, ptr %10, align 8, !tbaa !23
  %26 = getelementptr inbounds nuw %"struct.icu_77::number::impl::UFormattedNumberImpl", ptr %25, i32 0, i32 4
  %27 = getelementptr inbounds nuw %"class.icu_77::number::impl::UFormattedNumberData", ptr %26, i32 0, i32 2
  %28 = load ptr, ptr %9, align 8, !tbaa !22
  %29 = invoke noundef nonnull align 8 dereferenceable(92) ptr @_ZNK6icu_776number4impl15DecimalQuantity8toDecNumERNS1_6DecNumER10UErrorCode(ptr noundef nonnull align 8 dereferenceable(66) %27, ptr noundef nonnull align 8 dereferenceable(92) %12, ptr noundef nonnull align 4 dereferenceable(4) %28)
          to label %30 unwind label %38

30:                                               ; preds = %24
  %31 = load ptr, ptr %9, align 8, !tbaa !22
  invoke void @_ZNK6icu_776number4impl6DecNum12toCharStringER10UErrorCode(ptr dead_on_unwind writable sret(%"class.icu_77::CharString") align 8 %13, ptr noundef nonnull align 8 dereferenceable(92) %29, ptr noundef nonnull align 4 dereferenceable(4) %31)
          to label %32 unwind label %38

32:                                               ; preds = %30
  %33 = load ptr, ptr %7, align 8, !tbaa !17
  %34 = load i32, ptr %8, align 4, !tbaa !14
  %35 = load ptr, ptr %9, align 8, !tbaa !22
  %36 = invoke noundef i32 @_ZNK6icu_7710CharString7extractEPciR10UErrorCode(ptr noundef nonnull align 8 dereferenceable(60) %13, ptr noundef %33, i32 noundef %34, ptr noundef nonnull align 4 dereferenceable(4) %35)
          to label %37 unwind label %42

37:                                               ; preds = %32
  store i32 %36, ptr %5, align 4
  call void @_ZN6icu_7710CharStringD2Ev(ptr noundef nonnull align 8 dereferenceable(60) %13) #11
  call void @llvm.lifetime.end.p0(i64 64, ptr %13) #11
  store i32 1, ptr %11, align 4
  call void @_ZN6icu_776number4impl6DecNumD2Ev(ptr noundef nonnull align 8 dereferenceable(92) %12) #11
  call void @llvm.lifetime.end.p0(i64 96, ptr %12) #11
  br label %47

38:                                               ; preds = %30, %24
  %39 = landingpad { ptr, i32 }
          cleanup
  %40 = extractvalue { ptr, i32 } %39, 0
  store ptr %40, ptr %14, align 8
  %41 = extractvalue { ptr, i32 } %39, 1
  store i32 %41, ptr %15, align 4
  br label %46

42:                                               ; preds = %32
  %43 = landingpad { ptr, i32 }
          cleanup
  %44 = extractvalue { ptr, i32 } %43, 0
  store ptr %44, ptr %14, align 8
  %45 = extractvalue { ptr, i32 } %43, 1
  store i32 %45, ptr %15, align 4
  call void @_ZN6icu_7710CharStringD2Ev(ptr noundef nonnull align 8 dereferenceable(60) %13) #11
  br label %46

46:                                               ; preds = %42, %38
  call void @llvm.lifetime.end.p0(i64 64, ptr %13) #11
  call void @_ZN6icu_776number4impl6DecNumD2Ev(ptr noundef nonnull align 8 dereferenceable(92) %12) #11
  call void @llvm.lifetime.end.p0(i64 96, ptr %12) #11
  call void @llvm.lifetime.end.p0(i64 8, ptr %10) #11
  br label %49

47:                                               ; preds = %37, %23
  call void @llvm.lifetime.end.p0(i64 8, ptr %10) #11
  %48 = load i32, ptr %5, align 4
  ret i32 %48

49:                                               ; preds = %46
  %50 = load ptr, ptr %14, align 8
  %51 = load i32, ptr %15, align 4
  %52 = insertvalue { ptr, i32 } poison, ptr %50, 0
  %53 = insertvalue { ptr, i32 } %52, i32 %51, 1
  resume { ptr, i32 } %53
}